target datalayout = "e-m:e-p270:32:32-p271:32:32-p272:64:64-i64:64-i128:128-f80:128-n8:16:32:64-S128"
target triple = "x86_64-pc-linux-gnu"

%struct.expert_field = type { i32, i32 }

@hf_6lowpan_pattern = internal global i32 0, align 4
@ei_6lowpan_bad_ipv6_header_length = internal global %struct.expert_field zeroinitializer, align 4
@.str.286 = private unnamed_addr constant [42 x i8] c"Length is less than IPv6 header length %u\00", align 1

; Function Attrs: null_pointer_is_valid sspstrong uwtable
define internal ptr @dissect_6lowpan_ipv6(ptr noundef %0, ptr noundef %1, ptr noundef %2) #0 {
  %4 = alloca ptr, align 8
  %5 = alloca ptr, align 8
  %6 = alloca ptr, align 8
  store ptr %0, ptr %4, align 8
  store ptr %1, ptr %5, align 8
  store ptr %2, ptr %6, align 8
  %7 = load ptr, ptr %6, align 8
  %8 = load i32, ptr @hf_6lowpan_pattern, align 4
  %9 = load ptr, ptr %4, align 8
  %10 = call ptr @proto_tree_add_bits_item(ptr noundef %7, i32 noundef %8, ptr noundef %9, i32 noundef 0, i32 noundef 8, i32 noundef 0)
  %11 = load ptr, ptr %4, align 8
  %12 = call ptr @tvb_new_subset_remaining(ptr noundef %11, i32 noundef 1)
  ret ptr %12
}

; Function Attrs: null_pointer_is_valid sspstrong uwtable
define internal ptr @dissect_6lowpan_frag_headers(ptr noundef %0, ptr noundef %1, ptr noundef %2, ptr noundef %3, ptr noundef %4, ptr noundef %5) #0 {
  %7 = alloca ptr, align 8
  %8 = alloca ptr, align 8
  %9 = alloca ptr, align 8
  %10 = alloca ptr, align 8
  %11 = alloca ptr, align 8
  %12 = alloca ptr, align 8
  %13 = alloca ptr, align 8
  store ptr %0, ptr %7, align 8
  store ptr %1, ptr %8, align 8
  store ptr %2, ptr %9, align 8
  store ptr %3, ptr %10, align 8
  store ptr %4, ptr %11, align 8
  store ptr %5, ptr %12, align 8
  call void @llvm.lifetime.start.p0(i64 8, ptr %13) #15
  store ptr null, ptr %13, align 8
  %14 = load ptr, ptr %7, align 8
  %15 = call zeroext i8 @tvb_get_bits8(ptr noundef %14, i32 noundef 0, i32 noundef 8)
  %16 = zext i8 %15 to i32
  %17 = icmp eq i32 %16, 65
  br i1 %17, label %18, label %23

18:                                               ; preds = %6
  %19 = load ptr, ptr %7, align 8
  %20 = load ptr, ptr %8, align 8
  %21 = load ptr, ptr %9, align 8
  %22 = call ptr @dissect_6lowpan_ipv6(ptr noundef %19, ptr noundef %20, ptr noundef %21)
  store ptr %22, ptr %13, align 8
  br label %73

23:                                               ; preds = %6
  %24 = load ptr, ptr %7, align 8
  %25 = call zeroext i8 @tvb_get_bits8(ptr noundef %24, i32 noundef 0, i32 noundef 8)
  %26 = zext i8 %25 to i32
  %27 = icmp eq i32 %26, 66
  br i1 %27, label %28, label %45

28:                                               ; preds = %23
  %29 = load ptr, ptr %7, align 8
  %30 = call i32 @tvb_reported_length(ptr noundef %29)
  %31 = icmp ult i32 %30, 40
  br i1 %31, label %32, label %36

32:                                               ; preds = %28
  %33 = load ptr, ptr %8, align 8
  %34 = load ptr, ptr %10, align 8
  %35 = call ptr (ptr, ptr, ptr, ptr, ...) @expert_add_info_format(ptr noundef %33, ptr noundef %34, ptr noundef @ei_6lowpan_bad_ipv6_header_length, ptr noundef @.str.286, i32 noundef 40)
  br label %36

36:                                               ; preds = %32, %28
  %37 = load ptr, ptr %7, align 8
  %38 = load ptr, ptr %8, align 8
  %39 = load ptr, ptr %9, align 8
  %40 = load ptr, ptr %7, align 8
  %41 = call i32 @tvb_reported_length(ptr noundef %40)
  %42 = load ptr, ptr %11, align 8
  %43 = load ptr, ptr %12, align 8
  %44 = call ptr @dissect_6lowpan_hc1(ptr noundef %37, ptr noundef %38, ptr noundef %39, i32 noundef %41, ptr noundef %42, ptr noundef %43)
  store ptr %44, ptr %13, align 8
  br label %72

45:                                               ; preds = %23
  %46 = load ptr, ptr %7, align 8
  %47 = call zeroext i8 @tvb_get_bits8(ptr noundef %46, i32 noundef 0, i32 noundef 3)
  %48 = zext i8 %47 to i32
  %49 = icmp eq i32 %48, 3
  br i1 %49, label %50, label %67

50:                                               ; preds = %45
  %51 = load ptr, ptr %7, align 8
  %52 = call i32 @tvb_reported_length(ptr noundef %51)
  %53 = icmp ult i32 %52, 40
  br i1 %53, label %54, label %58

54:                                               ; preds = %50
  %55 = load ptr, ptr %8, align 8
  %56 = load ptr, ptr %10, align 8
  %57 = call ptr (ptr, ptr, ptr, ptr, ...) @expert_add_info_format(ptr noundef %55, ptr noundef %56, ptr noundef @ei_6lowpan_bad_ipv6_header_length, ptr noundef @.str.286, i32 noundef 40)
  br label %58

58:                                               ; preds = %54, %50
  %59 = load ptr, ptr %7, align 8
  %60 = load ptr, ptr %8, align 8
  %61 = load ptr, ptr %9, align 8
  %62 = load ptr, ptr %7, align 8
  %63 = call i32 @tvb_reported_length(ptr noundef %62)
  %64 = load ptr, ptr %11, align 8
  %65 = load ptr, ptr %12, align 8
  %66 = call ptr @dissect_6lowpan_iphc(ptr noundef %59, ptr noundef %60, ptr noundef %61, i32 noundef %63, ptr noundef %64, ptr noundef %65)
  store ptr %66, ptr %13, align 8
  br label %71

67:                                               ; preds = %45
  %68 = load ptr, ptr %7, align 8
  %69 = load ptr, ptr %8, align 8
  %70 = load ptr, ptr %9, align 8
  call void @dissect_6lowpan_unknown(ptr noundef %68, ptr noundef %69, ptr noundef %70)
  br label %71

71:                                               ; preds = %67, %58
  br label %72

72:                                               ; preds = %71, %36
  br label %73

73:                                               ; preds = %72, %18
  %74 = load ptr, ptr %13, align 8
  call void @llvm.lifetime.end.p0(i64 8, ptr %13) #15
  ret ptr %74
}