; Function Attrs: null_pointer_is_valid sspstrong uwtable
define internal fastcc ptr @dissect_6lowpan_frag_headers(ptr noundef %0, ptr noundef %1, ptr noundef %2, ptr noundef %3, ptr noundef readonly captures(none) %4, ptr noundef readonly captures(none) %5) unnamed_addr #0 {
  %7 = tail call zeroext i8 @tvb_get_bits8(ptr noundef %0, i32 noundef 0, i32 noundef 8)
  %8 = icmp eq i8 %7, 65
  br i1 %8, label %9, label %13

9:                                                ; preds = %6
  %10 = load i32, ptr @hf_6lowpan_pattern, align 4
  %11 = tail call ptr @proto_tree_add_bits_item(ptr noundef %2, i32 noundef %10, ptr noundef %0, i32 noundef 0, i32 noundef 8, i32 noundef 0)
  %12 = tail call ptr @tvb_new_subset_remaining(ptr noundef %0, i32 noundef 1)
  br label %36

13:                                               ; preds = %6
  %14 = tail call zeroext i8 @tvb_get_bits8(ptr noundef %0, i32 noundef 0, i32 noundef 8)
  %15 = icmp eq i8 %14, 66
  br i1 %15, label %16, label %24

16:                                               ; preds = %13
  %17 = tail call i32 @tvb_reported_length(ptr noundef %0)
  %18 = icmp ult i32 %17, 40
  br i1 %18, label %19, label %21

19:                                               ; preds = %16
  %20 = tail call ptr (ptr, ptr, ptr, ptr, ...) @expert_add_info_format(ptr noundef %1, ptr noundef %3, ptr noundef nonnull @ei_6lowpan_bad_ipv6_header_length, ptr noundef nonnull @.str.286, i32 noundef 40)
  br label %21

21:                                               ; preds = %19, %16
  %22 = tail call i32 @tvb_reported_length(ptr noundef %0)
  %23 = tail call fastcc ptr @dissect_6lowpan_hc1(ptr noundef %0, ptr noundef %1, ptr noundef %2, i32 noundef %22, ptr noundef %4, ptr noundef %5)
  br label %36

24:                                               ; preds = %13
  %25 = tail call zeroext i8 @tvb_get_bits8(ptr noundef %0, i32 noundef 0, i32 noundef 3)
  %26 = icmp eq i8 %25, 3
  br i1 %26, label %27, label %35

27:                                               ; preds = %24
  %28 = tail call i32 @tvb_reported_length(ptr noundef %0)
  %29 = icmp ult i32 %28, 40
  br i1 %29, label %30, label %32

30:                                               ; preds = %27
  %31 = tail call ptr (ptr, ptr, ptr, ptr, ...) @expert_add_info_format(ptr noundef %1, ptr noundef %3, ptr noundef nonnull @ei_6lowpan_bad_ipv6_header_length, ptr noundef nonnull @.str.286, i32 noundef 40)
  br label %32

32:                                               ; preds = %30, %27
  %33 = tail call i32 @tvb_reported_length(ptr noundef %0)
  %34 = tail call fastcc ptr @dissect_6lowpan_iphc(ptr noundef %0, ptr noundef %1, ptr noundef %2, i32 noundef %33, ptr noundef %4, ptr noundef %5)
  br label %36

35:                                               ; preds = %24
  tail call fastcc void @dissect_6lowpan_unknown(ptr noundef %0, ptr noundef %1, ptr noundef %2)
  br label %36

36:                                               ; preds = %21, %35, %32, %9
  %.0 = phi ptr [ %12, %9 ], [ %23, %21 ], [ %34, %32 ], [ null, %35 ]
  ret ptr %.0
}